; Function Attrs: nounwind uwtable
define dso_local void @hashReplyFromListpackEntry(ptr noundef %0, ptr noundef readonly captures(none) %1) local_unnamed_addr #1 {
  %3 = load ptr, ptr %1, align 8, !tbaa !71
  %.not = icmp eq ptr %3, null
  br i1 %.not, label %8, label %4

4:                                                ; preds = %2
  %5 = getelementptr inbounds nuw i8, ptr %1, i64 8
  %6 = load i32, ptr %5, align 8, !tbaa !73
  %7 = zext i32 %6 to i64
  tail call void @addReplyBulkCBuffer(ptr noundef %0, ptr noundef nonnull %3, i64 noundef %7) #16
  br label %11

8:                                                ; preds = %2
  %9 = getelementptr inbounds nuw i8, ptr %1, i64 16
  %10 = load i64, ptr %9, align 8, !tbaa !74
  tail call void @addReplyBulkLongLong(ptr noundef %0, i64 noundef %10) #16
  br label %11

11:                                               ; preds = %8, %4
  ret void
}